target datalayout = "e-m:e-p270:32:32-p271:32:32-p272:64:64-i64:64-i128:128-f80:128-n8:16:32:64-S128"
target triple = "x86_64-pc-linux-gnu"

%struct.json_dumper = type { ptr, ptr, i32, i32, i32, i32, [1100 x i8] }
%struct._phs_t = type { ptr, ptr, ptr, ptr, i32, ptr, i32, i64 }

@dumper = internal global %struct.json_dumper zeroinitializer, align 8
@.str.19 = private unnamed_addr constant [7 x i8] c"frames\00", align 1
@.str.38 = private unnamed_addr constant [6 x i8] c"proto\00", align 1
@.str.43 = private unnamed_addr constant [6 x i8] c"bytes\00", align 1
@.str.123 = private unnamed_addr constant [3 x i8] c"%u\00", align 1
@.str.280 = private unnamed_addr constant [4 x i8] c"%lu\00", align 1
@.str.370 = private unnamed_addr constant [7 x i8] c"protos\00", align 1

; Function Attrs: null_pointer_is_valid sspstrong uwtable
define internal void @sharkd_json_object_close() #0 {
  call void @json_dumper_end_object(ptr noundef @dumper)
  ret void
}

; Function Attrs: null_pointer_is_valid sspstrong uwtable
define internal void @sharkd_json_array_close() #0 {
  call void @json_dumper_end_array(ptr noundef @dumper)
  ret void
}

; Function Attrs: null_pointer_is_valid sspstrong uwtable
define internal void @sharkd_json_array_open(ptr noundef %0) #0 {
  %2 = alloca ptr, align 8
  store ptr %0, ptr %2, align 8
  %3 = load ptr, ptr %2, align 8
  %4 = icmp ne ptr %3, null
  br i1 %4, label %5, label %7

5:                                                ; preds = %1
  %6 = load ptr, ptr %2, align 8
  call void @json_dumper_set_member_name(ptr noundef @dumper, ptr noundef %6)
  br label %7

7:                                                ; preds = %5, %1
  call void @json_dumper_begin_array(ptr noundef @dumper)
  ret void
}

; Function Attrs: null_pointer_is_valid sspstrong uwtable
define internal void @sharkd_json_value_string(ptr noundef %0, ptr noundef %1) #0 {
  %3 = alloca ptr, align 8
  %4 = alloca ptr, align 8
  store ptr %0, ptr %3, align 8
  store ptr %1, ptr %4, align 8
  %5 = load ptr, ptr %3, align 8
  %6 = icmp ne ptr %5, null
  br i1 %6, label %7, label %9

7:                                                ; preds = %2
  %8 = load ptr, ptr %3, align 8
  call void @json_dumper_set_member_name(ptr noundef @dumper, ptr noundef %8)
  br label %9

9:                                                ; preds = %7, %2
  %10 = load ptr, ptr %4, align 8
  call void @json_dumper_value_string(ptr noundef @dumper, ptr noundef %10)
  ret void
}

; Function Attrs: null_pointer_is_valid sspstrong uwtable
define internal void @sharkd_json_object_open(ptr noundef %0) #0 {
  %2 = alloca ptr, align 8
  store ptr %0, ptr %2, align 8
  %3 = load ptr, ptr %2, align 8
  %4 = icmp ne ptr %3, null
  br i1 %4, label %5, label %7

5:                                                ; preds = %1
  %6 = load ptr, ptr %2, align 8
  call void @json_dumper_set_member_name(ptr noundef @dumper, ptr noundef %6)
  br label %7

7:                                                ; preds = %5, %1
  call void @json_dumper_begin_object(ptr noundef @dumper)
  ret void
}

; Function Attrs: null_pointer_is_valid sspstrong uwtable
define internal void @sharkd_session_process_tap_phs_cb_aux(ptr noundef %0) #0 {
  %2 = alloca ptr, align 8
  store ptr %0, ptr %2, align 8
  br label %3

3:                                                ; preds = %38, %1
  %4 = load ptr, ptr %2, align 8
  %5 = icmp ne ptr %4, null
  br i1 %5, label %6, label %42

6:                                                ; preds = %3
  %7 = load ptr, ptr %2, align 8
  %8 = getelementptr inbounds nuw %struct._phs_t, ptr %7, i32 0, i32 4
  %9 = load i32, ptr %8, align 8
  %10 = icmp eq i32 %9, -1
  br i1 %10, label %11, label %12

11:                                               ; preds = %6
  br label %42

12:                                               ; preds = %6
  call void @sharkd_json_object_open(ptr noundef null)
  %13 = load ptr, ptr %2, align 8
  %14 = getelementptr inbounds nuw %struct._phs_t, ptr %13, i32 0, i32 5
  %15 = load ptr, ptr %14, align 8
  call void @sharkd_json_value_string(ptr noundef @.str.38, ptr noundef %15)
  %16 = load ptr, ptr %2, align 8
  %17 = getelementptr inbounds nuw %struct._phs_t, ptr %16, i32 0, i32 6
  %18 = load i32, ptr %17, align 8
  call void (ptr, ptr, ...) @sharkd_json_value_anyf(ptr noundef @.str.19, ptr noundef @.str.123, i32 noundef %18)
  %19 = load ptr, ptr %2, align 8
  %20 = getelementptr inbounds nuw %struct._phs_t, ptr %19, i32 0, i32 7
  %21 = load i64, ptr %20, align 8
  call void (ptr, ptr, ...) @sharkd_json_value_anyf(ptr noundef @.str.43, ptr noundef @.str.280, i64 noundef %21)
  %22 = load ptr, ptr %2, align 8
  %23 = getelementptr inbounds nuw %struct._phs_t, ptr %22, i32 0, i32 1
  %24 = load ptr, ptr %23, align 8
  %25 = icmp ne ptr %24, null
  br i1 %25, label %26, label %37

26:                                               ; preds = %12
  %27 = load ptr, ptr %2, align 8
  %28 = getelementptr inbounds nuw %struct._phs_t, ptr %27, i32 0, i32 1
  %29 = load ptr, ptr %28, align 8
  %30 = getelementptr inbounds nuw %struct._phs_t, ptr %29, i32 0, i32 4
  %31 = load i32, ptr %30, align 8
  %32 = icmp ne i32 %31, -1
  br i1 %32, label %33, label %37

33:                                               ; preds = %26
  call void @sharkd_json_array_open(ptr noundef @.str.370)
  %34 = load ptr, ptr %2, align 8
  %35 = getelementptr inbounds nuw %struct._phs_t, ptr %34, i32 0, i32 1
  %36 = load ptr, ptr %35, align 8
  call void @sharkd_session_process_tap_phs_cb_aux(ptr noundef %36)
  call void @sharkd_json_array_close()
  br label %37

37:                                               ; preds = %33, %26, %12
  call void @sharkd_json_object_close()
  br label %38

38:                                               ; preds = %37
  %39 = load ptr, ptr %2, align 8
  %40 = getelementptr inbounds nuw %struct._phs_t, ptr %39, i32 0, i32 0
  %41 = load ptr, ptr %40, align 8
  store ptr %41, ptr %2, align 8
  br label %3, !llvm.loop !68

42:                                               ; preds = %11, %3
  ret void
}