; Function Attrs: null_pointer_is_valid sspstrong uwtable
define internal fastcc void @sharkd_session_process_tap_phs_cb_aux(ptr noundef readonly captures(address_is_null) %0) unnamed_addr #0 {
  %.not12 = icmp eq ptr %0, null
  br i1 %.not12, label %._crit_edge, label %.lr.ph

.lr.ph:                                           ; preds = %1, %19
  %.013 = phi ptr [ %20, %19 ], [ %0, %1 ]
  %2 = getelementptr inbounds nuw i8, ptr %.013, i64 32
  %3 = load i32, ptr %2, align 8
  %4 = icmp eq i32 %3, -1
  br i1 %4, label %._crit_edge, label %5

5:                                                ; preds = %.lr.ph
  tail call void @json_dumper_begin_object(ptr noundef nonnull @dumper)
  %6 = getelementptr inbounds nuw i8, ptr %.013, i64 40
  %7 = load ptr, ptr %6, align 8
  tail call void @json_dumper_set_member_name(ptr noundef nonnull @dumper, ptr noundef nonnull @.str.38)
  tail call void @json_dumper_value_string(ptr noundef nonnull @dumper, ptr noundef %7)
  %8 = getelementptr inbounds nuw i8, ptr %.013, i64 48
  %9 = load i32, ptr %8, align 8
  tail call void (ptr, ptr, ...) @sharkd_json_value_anyf(ptr noundef nonnull @.str.19, ptr noundef nonnull @.str.123, i32 noundef %9)
  %10 = getelementptr inbounds nuw i8, ptr %.013, i64 56
  %11 = load i64, ptr %10, align 8
  tail call void (ptr, ptr, ...) @sharkd_json_value_anyf(ptr noundef nonnull @.str.43, ptr noundef nonnull @.str.280, i64 noundef %11)
  %12 = getelementptr inbounds nuw i8, ptr %.013, i64 8
  %13 = load ptr, ptr %12, align 8
  %.not10 = icmp eq ptr %13, null
  br i1 %.not10, label %19, label %14

14:                                               ; preds = %5
  %15 = getelementptr inbounds nuw i8, ptr %13, i64 32
  %16 = load i32, ptr %15, align 8
  %.not11 = icmp eq i32 %16, -1
  br i1 %.not11, label %19, label %17

17:                                               ; preds = %14
  tail call void @json_dumper_set_member_name(ptr noundef nonnull @dumper, ptr noundef nonnull @.str.370)
  tail call void @json_dumper_begin_array(ptr noundef nonnull @dumper)
  %18 = load ptr, ptr %12, align 8
  tail call fastcc void @sharkd_session_process_tap_phs_cb_aux(ptr noundef %18)
  tail call void @json_dumper_end_array(ptr noundef nonnull @dumper)
  br label %19

19:                                               ; preds = %17, %14, %5
  tail call void @json_dumper_end_object(ptr noundef nonnull @dumper)
  %20 = load ptr, ptr %.013, align 8
  %.not = icmp eq ptr %20, null
  br i1 %.not, label %._crit_edge, label %.lr.ph, !llvm.loop !68

._crit_edge:                                      ; preds = %19, %.lr.ph, %1
  ret void
}